target datalayout = "e-m:e-p270:32:32-p271:32:32-p272:64:64-i64:64-i128:128-f80:128-n8:16:32:64-S128"
target triple = "x86_64-unknown-linux-gnu"

%struct.EHCIState = type { %struct.USBBus, ptr, ptr, %struct.MemoryRegion, ptr, %struct.MemoryRegion, %struct.MemoryRegion, %struct.MemoryRegion, i32, i8, i16, i16, i16, i16, i32, [16 x i8], %union.anon.5, [6 x i32], ptr, ptr, i8, i32, i32, [6 x %struct.USBPort], [6 x ptr], i32, i32, %union.EHCIQueueHead, %union.EHCIQueueHead, i32, i32, %struct.USBPacket, %struct.QEMUSGList, i64, i32, i32, i8, ptr }
%struct.USBBus = type { %struct.BusState, ptr, i32, i32, i32, %union.anon, %union.anon.0, %union.anon.1 }
%struct.BusState = type { %struct.Object, ptr, ptr, ptr, i32, i8, i8, i32, %union.BusChildHead, %struct.BusStateEntry, %struct.ResettableState }
%struct.Object = type { ptr, ptr, ptr, i32, ptr }
%union.BusChildHead = type { %struct.QTailQLink }
%struct.QTailQLink = type { ptr, ptr }
%struct.BusStateEntry = type { ptr, ptr }
%struct.ResettableState = type { i32, i8, i8 }
%union.anon = type { %struct.QTailQLink }
%union.anon.0 = type { %struct.QTailQLink }
%union.anon.1 = type { %struct.QTailQLink }
%struct.MemoryRegion = type { %struct.Object, i8, i8, i8, i8, i8, i8, i8, i8, i8, i8, ptr, ptr, ptr, ptr, ptr, ptr, i32, i128, i64, ptr, i64, i8, i8, i8, i8, i8, ptr, i64, i32, %union.anon.2, %union.anon.3, %union.anon.4, ptr, i32, ptr, ptr, i8 }
%union.anon.2 = type { %struct.QTailQLink }
%union.anon.3 = type { %struct.QTailQLink }
%union.anon.4 = type { %struct.QTailQLink }
%union.anon.5 = type { [17 x i32] }
%struct.USBPort = type { ptr, i32, i32, [16 x i8], ptr, ptr, i32, %union.anon.6 }
%union.anon.6 = type { %struct.QTailQLink }
%union.EHCIQueueHead = type { %struct.QTailQLink }
%struct.USBPacket = type { i32, i64, ptr, i32, %struct.QEMUIOVector, i64, i8, i8, i32, i32, i32, ptr, %union.anon.10, %union.anon.11 }
%struct.QEMUIOVector = type { ptr, i32, %union.anon.7 }
%union.anon.7 = type { %struct.anon.8 }
%struct.anon.8 = type { i32, %struct.iovec }
%struct.iovec = type { ptr, i64 }
%union.anon.10 = type { %struct.QTailQLink }
%union.anon.11 = type { %struct.QTailQLink }
%struct.QEMUSGList = type { ptr, i32, i32, i64, ptr, ptr }
%struct.anon = type { i32, i32, i32, i32, i32, i32, i32, [9 x i32], i32 }
%struct.timeval = type { i64, i64 }

@trace_events_enabled_count = external global i32, align 4
@message_with_timestamp = external global i8, align 1
@qemu_loglevel = external global i32, align 4
@_TRACE_USB_EHCI_IRQ_DSTATE = external global i16, align 2
@.str.34 = private unnamed_addr constant [73 x i8] c"%d@%zu.%06zu:usb_ehci_irq level %d, frindex 0x%04x, sts 0x%x, mask 0x%x\0A\00", align 1
@.str.35 = private unnamed_addr constant [60 x i8] c"usb_ehci_irq level %d, frindex 0x%04x, sts 0x%x, mask 0x%x\0A\00", align 1

; Function Attrs: nounwind sspstrong uwtable
define internal zeroext i1 @qemu_loglevel_mask(i32 noundef %mask) #0 {
entry:
  %mask.addr = alloca i32, align 4
  store i32 %mask, ptr %mask.addr, align 4
  %0 = load i32, ptr @qemu_loglevel, align 4
  %1 = load i32, ptr %mask.addr, align 4
  %and = and i32 %0, %1
  %cmp = icmp ne i32 %and, 0
  ret i1 %cmp
}

; Function Attrs: nounwind sspstrong uwtable
define internal void @_nocheck__trace_usb_ehci_irq(i32 noundef %level, i32 noundef %frindex, i32 noundef %sts, i32 noundef %mask) #0 {
entry:
  %level.addr = alloca i32, align 4
  %frindex.addr = alloca i32, align 4
  %sts.addr = alloca i32, align 4
  %mask.addr = alloca i32, align 4
  %_now = alloca %struct.timeval, align 8
  store i32 %level, ptr %level.addr, align 4
  store i32 %frindex, ptr %frindex.addr, align 4
  store i32 %sts, ptr %sts.addr, align 4
  store i32 %mask, ptr %mask.addr, align 4
  %0 = load i32, ptr @trace_events_enabled_count, align 4
  %tobool = icmp ne i32 %0, 0
  %lnot = xor i1 %tobool, true
  %lnot1 = xor i1 %lnot, true
  %lnot.ext = zext i1 %lnot1 to i32
  %conv = sext i32 %lnot.ext to i64
  %tobool2 = icmp ne i64 %conv, 0
  br i1 %tobool2, label %land.lhs.true, label %if.end11

land.lhs.true:                                    ; preds = %entry
  %1 = load i16, ptr @_TRACE_USB_EHCI_IRQ_DSTATE, align 2
  %conv3 = zext i16 %1 to i32
  %tobool4 = icmp ne i32 %conv3, 0
  br i1 %tobool4, label %land.lhs.true5, label %if.end11

land.lhs.true5:                                   ; preds = %land.lhs.true
  %call = call zeroext i1 @qemu_loglevel_mask(i32 noundef 32768)
  br i1 %call, label %if.then, label %if.end11

if.then:                                          ; preds = %land.lhs.true5
  %2 = load i8, ptr @message_with_timestamp, align 1
  %tobool7 = trunc i8 %2 to i1
  br i1 %tobool7, label %if.then8, label %if.else

if.then8:                                         ; preds = %if.then
  %call9 = call i32 @gettimeofday(ptr noundef %_now, ptr noundef null) #10
  %call10 = call i32 @qemu_get_thread_id()
  %tv_sec = getelementptr inbounds %struct.timeval, ptr %_now, i32 0, i32 0
  %3 = load i64, ptr %tv_sec, align 8
  %tv_usec = getelementptr inbounds %struct.timeval, ptr %_now, i32 0, i32 1
  %4 = load i64, ptr %tv_usec, align 8
  %5 = load i32, ptr %level.addr, align 4
  %6 = load i32, ptr %frindex.addr, align 4
  %7 = load i32, ptr %sts.addr, align 4
  %8 = load i32, ptr %mask.addr, align 4
  call void (ptr, ...) @qemu_log(ptr noundef @.str.34, i32 noundef %call10, i64 noundef %3, i64 noundef %4, i32 noundef %5, i32 noundef %6, i32 noundef %7, i32 noundef %8)
  br label %if.end

if.else:                                          ; preds = %if.then
  %9 = load i32, ptr %level.addr, align 4
  %10 = load i32, ptr %frindex.addr, align 4
  %11 = load i32, ptr %sts.addr, align 4
  %12 = load i32, ptr %mask.addr, align 4
  call void (ptr, ...) @qemu_log(ptr noundef @.str.35, i32 noundef %9, i32 noundef %10, i32 noundef %11, i32 noundef %12)
  br label %if.end

if.end:                                           ; preds = %if.else, %if.then8
  br label %if.end11

if.end11:                                         ; preds = %if.end, %land.lhs.true5, %land.lhs.true, %entry
  ret void
}

; Function Attrs: nounwind sspstrong uwtable
define internal void @trace_usb_ehci_irq(i32 noundef %level, i32 noundef %frindex, i32 noundef %sts, i32 noundef %mask) #0 {
entry:
  %level.addr = alloca i32, align 4
  %frindex.addr = alloca i32, align 4
  %sts.addr = alloca i32, align 4
  %mask.addr = alloca i32, align 4
  store i32 %level, ptr %level.addr, align 4
  store i32 %frindex, ptr %frindex.addr, align 4
  store i32 %sts, ptr %sts.addr, align 4
  store i32 %mask, ptr %mask.addr, align 4
  %0 = load i32, ptr %level.addr, align 4
  %1 = load i32, ptr %frindex.addr, align 4
  %2 = load i32, ptr %sts.addr, align 4
  %3 = load i32, ptr %mask.addr, align 4
  call void @_nocheck__trace_usb_ehci_irq(i32 noundef %0, i32 noundef %1, i32 noundef %2, i32 noundef %3)
  ret void
}

; Function Attrs: nounwind sspstrong uwtable
define internal void @ehci_update_irq(ptr noundef %s) #0 {
entry:
  %s.addr = alloca ptr, align 8
  %level = alloca i32, align 4
  store ptr %s, ptr %s.addr, align 8
  store i32 0, ptr %level, align 4
  %0 = load ptr, ptr %s.addr, align 8
  %1 = getelementptr inbounds %struct.EHCIState, ptr %0, i32 0, i32 16
  %usbsts = getelementptr inbounds %struct.anon, ptr %1, i32 0, i32 1
  %2 = load i32, ptr %usbsts, align 4
  %and = and i32 %2, 63
  %3 = load ptr, ptr %s.addr, align 8
  %4 = getelementptr inbounds %struct.EHCIState, ptr %3, i32 0, i32 16
  %usbintr = getelementptr inbounds %struct.anon, ptr %4, i32 0, i32 2
  %5 = load i32, ptr %usbintr, align 4
  %and1 = and i32 %and, %5
  %tobool = icmp ne i32 %and1, 0
  br i1 %tobool, label %if.then, label %if.end

if.then:                                          ; preds = %entry
  store i32 1, ptr %level, align 4
  br label %if.end

if.end:                                           ; preds = %if.then, %entry
  %6 = load i32, ptr %level, align 4
  %7 = load ptr, ptr %s.addr, align 8
  %8 = getelementptr inbounds %struct.EHCIState, ptr %7, i32 0, i32 16
  %frindex = getelementptr inbounds %struct.anon, ptr %8, i32 0, i32 3
  %9 = load i32, ptr %frindex, align 4
  %10 = load ptr, ptr %s.addr, align 8
  %11 = getelementptr inbounds %struct.EHCIState, ptr %10, i32 0, i32 16
  %usbsts2 = getelementptr inbounds %struct.anon, ptr %11, i32 0, i32 1
  %12 = load i32, ptr %usbsts2, align 4
  %13 = load ptr, ptr %s.addr, align 8
  %14 = getelementptr inbounds %struct.EHCIState, ptr %13, i32 0, i32 16
  %usbintr3 = getelementptr inbounds %struct.anon, ptr %14, i32 0, i32 2
  %15 = load i32, ptr %usbintr3, align 4
  call void @trace_usb_ehci_irq(i32 noundef %6, i32 noundef %9, i32 noundef %12, i32 noundef %15)
  %16 = load ptr, ptr %s.addr, align 8
  %irq = getelementptr inbounds %struct.EHCIState, ptr %16, i32 0, i32 2
  %17 = load ptr, ptr %irq, align 8
  %18 = load i32, ptr %level, align 4
  call void @qemu_set_irq(ptr noundef %17, i32 noundef %18)
  ret void
}