; Function Attrs: nounwind sspstrong uwtable
define internal fastcc void @ehci_update_irq(ptr noundef readonly captures(none) %s) unnamed_addr #0 {
entry:
  %_now.i.i = alloca %struct.timeval, align 8
  %usbsts = getelementptr inbounds nuw i8, ptr %s, i64 1352
  %0 = load i32, ptr %usbsts, align 4
  %and = and i32 %0, 63
  %usbintr = getelementptr inbounds nuw i8, ptr %s, i64 1356
  %1 = load i32, ptr %usbintr, align 4
  %and1 = and i32 %and, %1
  %tobool.not = icmp ne i32 %and1, 0
  %spec.select = zext i1 %tobool.not to i32
  %frindex = getelementptr inbounds nuw i8, ptr %s, i64 1360
  %2 = load i32, ptr %frindex, align 4
  call void @llvm.lifetime.start.p0(i64 16, ptr nonnull %_now.i.i)
  %3 = load i32, ptr @trace_events_enabled_count, align 4
  %tobool.i.i = icmp ne i32 %3, 0
  %4 = load i16, ptr @_TRACE_USB_EHCI_IRQ_DSTATE, align 2
  %tobool4.i.i = icmp ne i16 %4, 0
  %or.cond.i.i = select i1 %tobool.i.i, i1 %tobool4.i.i, i1 false
  br i1 %or.cond.i.i, label %land.lhs.true5.i.i, label %trace_usb_ehci_irq.exit

land.lhs.true5.i.i:                               ; preds = %entry
  %5 = load i32, ptr @qemu_loglevel, align 4
  %and.i.i.i = and i32 %5, 32768
  %cmp.i.not.i.i = icmp eq i32 %and.i.i.i, 0
  br i1 %cmp.i.not.i.i, label %trace_usb_ehci_irq.exit, label %if.then.i.i

if.then.i.i:                                      ; preds = %land.lhs.true5.i.i
  %6 = load i8, ptr @message_with_timestamp, align 1
  %tobool7.i.i = trunc i8 %6 to i1
  br i1 %tobool7.i.i, label %if.then8.i.i, label %if.else.i.i

if.then8.i.i:                                     ; preds = %if.then.i.i
  %call9.i.i = call i32 @gettimeofday(ptr noundef nonnull %_now.i.i, ptr noundef null) #17
  %call10.i.i = tail call i32 @qemu_get_thread_id() #17
  %7 = load i64, ptr %_now.i.i, align 8
  %tv_usec.i.i = getelementptr inbounds nuw i8, ptr %_now.i.i, i64 8
  %8 = load i64, ptr %tv_usec.i.i, align 8
  tail call void (ptr, ...) @qemu_log(ptr noundef nonnull @.str.34, i32 noundef %call10.i.i, i64 noundef %7, i64 noundef %8, i32 noundef range(i32 0, 2) %spec.select, i32 noundef %2, i32 noundef %0, i32 noundef %1) #17
  br label %trace_usb_ehci_irq.exit

if.else.i.i:                                      ; preds = %if.then.i.i
  tail call void (ptr, ...) @qemu_log(ptr noundef nonnull @.str.35, i32 noundef range(i32 0, 2) %spec.select, i32 noundef %2, i32 noundef %0, i32 noundef %1) #17
  br label %trace_usb_ehci_irq.exit

trace_usb_ehci_irq.exit:                          ; preds = %entry, %land.lhs.true5.i.i, %if.then8.i.i, %if.else.i.i
  call void @llvm.lifetime.end.p0(i64 16, ptr nonnull %_now.i.i)
  %irq = getelementptr inbounds nuw i8, ptr %s, i64 200
  %9 = load ptr, ptr %irq, align 8
  tail call void @qemu_set_irq(ptr noundef %9, i32 noundef %spec.select) #17
  ret void
}